target datalayout = "e-m:e-p270:32:32-p271:32:32-p272:64:64-i64:64-i128:128-f80:128-n8:16:32:64-S128"
target triple = "x86_64-pc-linux-gnu"

%struct.ImVector.1 = type { i32, i32, ptr }
%struct.ImFont = type <{ %struct.ImVector.6, float, float, %struct.ImVector.1, %struct.ImVector.7, ptr, ptr, ptr, i16, i16, i16, i16, float, float, i8, [3 x i8], float, float, float, i32, [2 x i8], [2 x i8] }>
%struct.ImVector.6 = type { i32, i32, ptr }
%struct.ImVector.7 = type { i32, i32, ptr }

; Function Attrs: noinline noreturn nounwind uwtable
define linkonce_odr hidden void @__clang_call_terminate(ptr noundef %0) #14 comdat {
  %2 = call ptr @__cxa_begin_catch(ptr %0) #17
  call void @_ZSt9terminatev() #18
  unreachable
}

; Function Attrs: inlinehint mustprogress nounwind uwtable
define linkonce_odr dso_local void @_ZN8ImVectorIfED2Ev(ptr noundef nonnull align 8 dereferenceable(16) %0) unnamed_addr #7 comdat align 2 personality ptr @__gxx_personality_v0 {
  %2 = alloca ptr, align 8
  store ptr %0, ptr %2, align 8, !tbaa !496
  %3 = load ptr, ptr %2, align 8
  %4 = getelementptr inbounds nuw %struct.ImVector.6, ptr %3, i32 0, i32 2
  %5 = load ptr, ptr %4, align 8, !tbaa !500
  %6 = icmp ne ptr %5, null
  br i1 %6, label %7, label %11

7:                                                ; preds = %1
  %8 = getelementptr inbounds nuw %struct.ImVector.6, ptr %3, i32 0, i32 2
  %9 = load ptr, ptr %8, align 8, !tbaa !500
  invoke void @_ZN5ImGui7MemFreeEPv(ptr noundef %9)
          to label %10 unwind label %12

10:                                               ; preds = %7
  br label %11

11:                                               ; preds = %10, %1
  ret void

12:                                               ; preds = %7
  %13 = landingpad { ptr, i32 }
          catch ptr null
  %14 = extractvalue { ptr, i32 } %13, 0
  call void @__clang_call_terminate(ptr %14) #18
  unreachable
}

; Function Attrs: inlinehint mustprogress nounwind uwtable
define linkonce_odr dso_local void @_ZN8ImVectorItED2Ev(ptr noundef nonnull align 8 dereferenceable(16) %0) unnamed_addr #7 comdat align 2 personality ptr @__gxx_personality_v0 {
  %2 = alloca ptr, align 8
  store ptr %0, ptr %2, align 8, !tbaa !93
  %3 = load ptr, ptr %2, align 8
  %4 = getelementptr inbounds nuw %struct.ImVector.1, ptr %3, i32 0, i32 2
  %5 = load ptr, ptr %4, align 8, !tbaa !111
  %6 = icmp ne ptr %5, null
  br i1 %6, label %7, label %11

7:                                                ; preds = %1
  %8 = getelementptr inbounds nuw %struct.ImVector.1, ptr %3, i32 0, i32 2
  %9 = load ptr, ptr %8, align 8, !tbaa !111
  invoke void @_ZN5ImGui7MemFreeEPv(ptr noundef %9)
          to label %10 unwind label %12

10:                                               ; preds = %7
  br label %11

11:                                               ; preds = %10, %1
  ret void

12:                                               ; preds = %7
  %13 = landingpad { ptr, i32 }
          catch ptr null
  %14 = extractvalue { ptr, i32 } %13, 0
  call void @__clang_call_terminate(ptr %14) #18
  unreachable
}

; Function Attrs: inlinehint mustprogress nounwind uwtable
define linkonce_odr dso_local void @_ZN8ImVectorI11ImFontGlyphEC2Ev(ptr noundef nonnull align 8 dereferenceable(16) %0) unnamed_addr #7 comdat align 2 {
  %2 = alloca ptr, align 8
  store ptr %0, ptr %2, align 8, !tbaa !501
  %3 = load ptr, ptr %2, align 8
  %4 = getelementptr inbounds nuw %struct.ImVector.7, ptr %3, i32 0, i32 1
  store i32 0, ptr %4, align 4, !tbaa !503
  %5 = getelementptr inbounds nuw %struct.ImVector.7, ptr %3, i32 0, i32 0
  store i32 0, ptr %5, align 8, !tbaa !504
  %6 = getelementptr inbounds nuw %struct.ImVector.7, ptr %3, i32 0, i32 2
  store ptr null, ptr %6, align 8, !tbaa !505
  ret void
}

; Function Attrs: inlinehint mustprogress nounwind uwtable
define linkonce_odr dso_local void @_ZN8ImVectorItEC2Ev(ptr noundef nonnull align 8 dereferenceable(16) %0) unnamed_addr #7 comdat align 2 {
  %2 = alloca ptr, align 8
  store ptr %0, ptr %2, align 8, !tbaa !93
  %3 = load ptr, ptr %2, align 8
  %4 = getelementptr inbounds nuw %struct.ImVector.1, ptr %3, i32 0, i32 1
  store i32 0, ptr %4, align 4, !tbaa !95
  %5 = getelementptr inbounds nuw %struct.ImVector.1, ptr %3, i32 0, i32 0
  store i32 0, ptr %5, align 8, !tbaa !96
  %6 = getelementptr inbounds nuw %struct.ImVector.1, ptr %3, i32 0, i32 2
  store ptr null, ptr %6, align 8, !tbaa !111
  ret void
}

; Function Attrs: inlinehint mustprogress nounwind uwtable
define linkonce_odr dso_local void @_ZN8ImVectorIfEC2Ev(ptr noundef nonnull align 8 dereferenceable(16) %0) unnamed_addr #7 comdat align 2 {
  %2 = alloca ptr, align 8
  store ptr %0, ptr %2, align 8, !tbaa !496
  %3 = load ptr, ptr %2, align 8
  %4 = getelementptr inbounds nuw %struct.ImVector.6, ptr %3, i32 0, i32 1
  store i32 0, ptr %4, align 4, !tbaa !498
  %5 = getelementptr inbounds nuw %struct.ImVector.6, ptr %3, i32 0, i32 0
  store i32 0, ptr %5, align 8, !tbaa !499
  %6 = getelementptr inbounds nuw %struct.ImVector.6, ptr %3, i32 0, i32 2
  store ptr null, ptr %6, align 8, !tbaa !500
  ret void
}

; Function Attrs: mustprogress uwtable
define dso_local void @_ZN6ImFontC2Ev(ptr noundef nonnull align 8 dereferenceable(118) %0) unnamed_addr #6 align 2 personality ptr @__gxx_personality_v0 {
  %2 = alloca ptr, align 8
  %3 = alloca ptr, align 8
  %4 = alloca i32, align 4
  store ptr %0, ptr %2, align 8, !tbaa !169
  %5 = load ptr, ptr %2, align 8
  %6 = getelementptr inbounds nuw %struct.ImFont, ptr %5, i32 0, i32 0
  call void @_ZN8ImVectorIfEC2Ev(ptr noundef nonnull align 8 dereferenceable(16) %6)
  %7 = getelementptr inbounds nuw %struct.ImFont, ptr %5, i32 0, i32 3
  invoke void @_ZN8ImVectorItEC2Ev(ptr noundef nonnull align 8 dereferenceable(16) %7)
          to label %8 unwind label %29

8:                                                ; preds = %1
  %9 = getelementptr inbounds nuw %struct.ImFont, ptr %5, i32 0, i32 4
  invoke void @_ZN8ImVectorI11ImFontGlyphEC2Ev(ptr noundef nonnull align 8 dereferenceable(16) %9)
          to label %10 unwind label %33

10:                                               ; preds = %8
  %11 = getelementptr inbounds nuw %struct.ImFont, ptr %5, i32 0, i32 2
  store float 0.000000e+00, ptr %11, align 4, !tbaa !173
  %12 = getelementptr inbounds nuw %struct.ImFont, ptr %5, i32 0, i32 1
  store float 0.000000e+00, ptr %12, align 8, !tbaa !442
  %13 = getelementptr inbounds nuw %struct.ImFont, ptr %5, i32 0, i32 9
  store i16 -1, ptr %13, align 2, !tbaa !482
  %14 = getelementptr inbounds nuw %struct.ImFont, ptr %5, i32 0, i32 10
  store i16 -1, ptr %14, align 4, !tbaa !330
  %15 = getelementptr inbounds nuw %struct.ImFont, ptr %5, i32 0, i32 13
  store float 0.000000e+00, ptr %15, align 4, !tbaa !485
  %16 = getelementptr inbounds nuw %struct.ImFont, ptr %5, i32 0, i32 12
  store float 0.000000e+00, ptr %16, align 8, !tbaa !486
  %17 = getelementptr inbounds nuw %struct.ImFont, ptr %5, i32 0, i32 11
  store i16 0, ptr %17, align 2, !tbaa !484
  %18 = getelementptr inbounds nuw %struct.ImFont, ptr %5, i32 0, i32 5
  store ptr null, ptr %18, align 8, !tbaa !443
  %19 = getelementptr inbounds nuw %struct.ImFont, ptr %5, i32 0, i32 6
  store ptr null, ptr %19, align 8, !tbaa !440
  %20 = getelementptr inbounds nuw %struct.ImFont, ptr %5, i32 0, i32 7
  store ptr null, ptr %20, align 8, !tbaa !309
  %21 = getelementptr inbounds nuw %struct.ImFont, ptr %5, i32 0, i32 8
  store i16 0, ptr %21, align 8, !tbaa !312
  %22 = getelementptr inbounds nuw %struct.ImFont, ptr %5, i32 0, i32 14
  store i8 0, ptr %22, align 8, !tbaa !444
  %23 = getelementptr inbounds nuw %struct.ImFont, ptr %5, i32 0, i32 16
  store float 1.000000e+00, ptr %23, align 4, !tbaa !495
  %24 = getelementptr inbounds nuw %struct.ImFont, ptr %5, i32 0, i32 18
  store float 0.000000e+00, ptr %24, align 4, !tbaa !441
  %25 = getelementptr inbounds nuw %struct.ImFont, ptr %5, i32 0, i32 17
  store float 0.000000e+00, ptr %25, align 8, !tbaa !426
  %26 = getelementptr inbounds nuw %struct.ImFont, ptr %5, i32 0, i32 19
  store i32 0, ptr %26, align 8, !tbaa !445
  %27 = getelementptr inbounds nuw %struct.ImFont, ptr %5, i32 0, i32 20
  %28 = getelementptr inbounds [2 x i8], ptr %27, i64 0, i64 0
  call void @llvm.memset.p0.i64(ptr align 4 %28, i8 0, i64 2, i1 false)
  ret void

29:                                               ; preds = %1
  %30 = landingpad { ptr, i32 }
          cleanup
  %31 = extractvalue { ptr, i32 } %30, 0
  store ptr %31, ptr %3, align 8
  %32 = extractvalue { ptr, i32 } %30, 1
  store i32 %32, ptr %4, align 4
  br label %37

33:                                               ; preds = %8
  %34 = landingpad { ptr, i32 }
          cleanup
  %35 = extractvalue { ptr, i32 } %34, 0
  store ptr %35, ptr %3, align 8
  %36 = extractvalue { ptr, i32 } %34, 1
  store i32 %36, ptr %4, align 4
  call void @_ZN8ImVectorItED2Ev(ptr noundef nonnull align 8 dereferenceable(16) %7) #17
  br label %37

37:                                               ; preds = %33, %29
  call void @_ZN8ImVectorIfED2Ev(ptr noundef nonnull align 8 dereferenceable(16) %6) #17
  br label %38

38:                                               ; preds = %37
  %39 = load ptr, ptr %3, align 8
  %40 = load i32, ptr %4, align 4
  %41 = insertvalue { ptr, i32 } poison, ptr %39, 0
  %42 = insertvalue { ptr, i32 } %41, i32 %40, 1
  resume { ptr, i32 } %42
}