; Function Attrs: mustprogress nofree norecurse nosync nounwind willreturn memory(argmem: write) uwtable
define dso_local void @_ZN6ImFontC2Ev(ptr noundef nonnull writeonly align 8 captures(none) dereferenceable(118) initializes((0, 97), (100, 118)) %0) unnamed_addr #22 align 2 personality ptr @__gxx_personality_v0 {
  %2 = getelementptr inbounds nuw i8, ptr %0, i64 82
  tail call void @llvm.memset.p0.i64(ptr noundef nonnull align 8 dereferenceable(56) %0, i8 0, i64 56, i1 false)
  store i16 -1, ptr %2, align 2, !tbaa !276
  %3 = getelementptr inbounds nuw i8, ptr %0, i64 84
  store i16 -1, ptr %3, align 4, !tbaa !277
  %4 = getelementptr inbounds nuw i8, ptr %0, i64 86
  %5 = getelementptr inbounds nuw i8, ptr %0, i64 56
  %6 = getelementptr inbounds nuw i8, ptr %0, i64 100
  tail call void @llvm.memset.p0.i64(ptr noundef nonnull align 8 dereferenceable(26) %5, i8 0, i64 26, i1 false)
  tail call void @llvm.memset.p0.i64(ptr noundef nonnull align 2 dereferenceable(11) %4, i8 0, i64 11, i1 false)
  store float 1.000000e+00, ptr %6, align 4, !tbaa !278
  %7 = getelementptr inbounds nuw i8, ptr %0, i64 104
  tail call void @llvm.memset.p0.i64(ptr noundef nonnull align 8 dereferenceable(14) %7, i8 0, i64 14, i1 false)
  ret void
}